target datalayout = "e-m:e-p270:32:32-p271:32:32-p272:64:64-i64:64-i128:128-f80:128-n8:16:32:64-S128"
target triple = "x86_64-pc-linux-gnu"

%"struct.faiss::ScalarQuantizer::SQuantizer" = type { ptr }
%"struct.faiss::(anonymous namespace)::QuantizerTemplate.5" = type { %"struct.faiss::ScalarQuantizer::SQuantizer", i64, float, float }
%"struct.faiss::ScalarQuantizer::SQDistanceComputer" = type { %"struct.faiss::FlatCodesDistanceComputer", ptr }
%"struct.faiss::FlatCodesDistanceComputer" = type { %"struct.faiss::DistanceComputer", ptr, i64 }
%"struct.faiss::DistanceComputer" = type { ptr }
%"struct.faiss::(anonymous namespace)::DCTemplate.20" = type { %"struct.faiss::ScalarQuantizer::SQDistanceComputer", %"struct.faiss::(anonymous namespace)::QuantizerTemplate.5" }
%"struct.faiss::(anonymous namespace)::SimilarityIP" = type <{ ptr, ptr, float, [4 x i8] }>
%"struct.faiss::InvertedListScanner" = type { ptr, i64, i8, i8, ptr, i64 }
%"struct.faiss::(anonymous namespace)::IVFSQScannerIP" = type { %"struct.faiss::InvertedListScanner", %"struct.faiss::(anonymous namespace)::DCTemplate.20", i8, float }

; Function Attrs: mustprogress nounwind uwtable
define internal void @_ZN5faiss12_GLOBAL__N_112SimilarityIPILi1EEC2EPKf(ptr noundef nonnull align 8 dereferenceable(20) %0, ptr noundef %1) unnamed_addr #1 align 2 {
  %3 = alloca ptr, align 8
  %4 = alloca ptr, align 8
  store ptr %0, ptr %3, align 8
  store ptr %1, ptr %4, align 8
  %5 = load ptr, ptr %3, align 8
  %6 = getelementptr inbounds %"struct.faiss::(anonymous namespace)::SimilarityIP", ptr %5, i32 0, i32 0
  %7 = load ptr, ptr %4, align 8
  store ptr %7, ptr %6, align 8
  ret void
}

; Function Attrs: mustprogress uwtable
define internal noundef float @_ZNK5faiss12_GLOBAL__N_110DCTemplateINS0_17QuantizerTemplateINS0_9Codec8bitELb1ELi1EEENS0_12SimilarityIPILi1EEELi1EE16compute_distanceEPKfPKh(ptr noundef nonnull align 8 dereferenceable(56) %0, ptr noundef %1, ptr noundef %2) #0 align 2 {
  %4 = alloca ptr, align 8
  %5 = alloca float, align 4
  %6 = alloca ptr, align 8
  %7 = alloca ptr, align 8
  %8 = alloca ptr, align 8
  %9 = alloca i32, align 4
  %10 = alloca ptr, align 8
  %11 = alloca ptr, align 8
  %12 = alloca i32, align 4
  %13 = alloca float, align 4
  %14 = alloca ptr, align 8
  %15 = alloca ptr, align 8
  %16 = alloca ptr, align 8
  %17 = alloca %"struct.faiss::(anonymous namespace)::SimilarityIP", align 8
  %18 = alloca i64, align 8
  %19 = alloca float, align 4
  store ptr %0, ptr %14, align 8
  store ptr %1, ptr %15, align 8
  store ptr %2, ptr %16, align 8
  %20 = load ptr, ptr %14, align 8
  %21 = load ptr, ptr %15, align 8
  call void @_ZN5faiss12_GLOBAL__N_112SimilarityIPILi1EEC2EPKf(ptr noundef nonnull align 8 dereferenceable(20) %17, ptr noundef %21)
  store ptr %17, ptr %7, align 8
  %22 = load ptr, ptr %7, align 8
  %23 = getelementptr inbounds %"struct.faiss::(anonymous namespace)::SimilarityIP", ptr %22, i32 0, i32 2
  store float 0.000000e+00, ptr %23, align 8
  %24 = load ptr, ptr %22, align 8
  %25 = getelementptr inbounds %"struct.faiss::(anonymous namespace)::SimilarityIP", ptr %22, i32 0, i32 1
  store ptr %24, ptr %25, align 8
  store i64 0, ptr %18, align 8
  br label %26

26:                                               ; preds = %65, %3
  %27 = load i64, ptr %18, align 8
  %28 = getelementptr inbounds %"struct.faiss::(anonymous namespace)::DCTemplate.20", ptr %20, i32 0, i32 1
  %29 = getelementptr inbounds %"struct.faiss::(anonymous namespace)::QuantizerTemplate.5", ptr %28, i32 0, i32 1
  %30 = load i64, ptr %29, align 8
  %31 = icmp ult i64 %27, %30
  br i1 %31, label %32, label %68

32:                                               ; preds = %26
  %33 = getelementptr inbounds %"struct.faiss::(anonymous namespace)::DCTemplate.20", ptr %20, i32 0, i32 1
  %34 = load ptr, ptr %16, align 8
  %35 = load i64, ptr %18, align 8
  %36 = trunc i64 %35 to i32
  store ptr %33, ptr %10, align 8
  store ptr %34, ptr %11, align 8
  store i32 %36, ptr %12, align 4
  %37 = load ptr, ptr %10, align 8
  %38 = load ptr, ptr %11, align 8
  %39 = load i32, ptr %12, align 4
  store ptr %38, ptr %8, align 8
  store i32 %39, ptr %9, align 4
  %40 = load ptr, ptr %8, align 8
  %41 = load i32, ptr %9, align 4
  %42 = sext i32 %41 to i64
  %43 = getelementptr inbounds i8, ptr %40, i64 %42
  %44 = load i8, ptr %43, align 1
  %45 = zext i8 %44 to i32
  %46 = sitofp i32 %45 to float
  %47 = fadd float %46, 5.000000e-01
  %48 = fdiv float %47, 2.550000e+02
  store float %48, ptr %13, align 4
  %49 = getelementptr inbounds %"struct.faiss::(anonymous namespace)::QuantizerTemplate.5", ptr %37, i32 0, i32 2
  %50 = load float, ptr %49, align 8
  %51 = load float, ptr %13, align 4
  %52 = getelementptr inbounds %"struct.faiss::(anonymous namespace)::QuantizerTemplate.5", ptr %37, i32 0, i32 3
  %53 = load float, ptr %52, align 4
  %54 = call noundef float @llvm.fmuladd.f32(float %51, float %53, float %50)
  store float %54, ptr %19, align 4
  %55 = load float, ptr %19, align 4
  store ptr %17, ptr %4, align 8
  store float %55, ptr %5, align 4
  %56 = load ptr, ptr %4, align 8
  %57 = getelementptr inbounds %"struct.faiss::(anonymous namespace)::SimilarityIP", ptr %56, i32 0, i32 1
  %58 = load ptr, ptr %57, align 8
  %59 = getelementptr inbounds float, ptr %58, i32 1
  store ptr %59, ptr %57, align 8
  %60 = load float, ptr %58, align 4
  %61 = load float, ptr %5, align 4
  %62 = getelementptr inbounds %"struct.faiss::(anonymous namespace)::SimilarityIP", ptr %56, i32 0, i32 2
  %63 = load float, ptr %62, align 8
  %64 = call float @llvm.fmuladd.f32(float %60, float %61, float %63)
  store float %64, ptr %62, align 8
  br label %65

65:                                               ; preds = %32
  %66 = load i64, ptr %18, align 8
  %67 = add i64 %66, 1
  store i64 %67, ptr %18, align 8
  br label %26, !llvm.loop !62

68:                                               ; preds = %26
  store ptr %17, ptr %6, align 8
  %69 = load ptr, ptr %6, align 8
  %70 = getelementptr inbounds %"struct.faiss::(anonymous namespace)::SimilarityIP", ptr %69, i32 0, i32 2
  %71 = load float, ptr %70, align 8
  ret float %71
}

; Function Attrs: mustprogress uwtable
define internal noundef float @_ZNK5faiss12_GLOBAL__N_110DCTemplateINS0_17QuantizerTemplateINS0_9Codec8bitELb1ELi1EEENS0_12SimilarityIPILi1EEELi1EE13query_to_codeEPKh(ptr noundef nonnull align 8 dereferenceable(56) %0, ptr noundef %1) unnamed_addr #0 align 2 {
  %3 = alloca ptr, align 8
  %4 = alloca ptr, align 8
  store ptr %0, ptr %3, align 8
  store ptr %1, ptr %4, align 8
  %5 = load ptr, ptr %3, align 8
  %6 = getelementptr inbounds %"struct.faiss::ScalarQuantizer::SQDistanceComputer", ptr %5, i32 0, i32 1
  %7 = load ptr, ptr %6, align 8
  %8 = load ptr, ptr %4, align 8
  %9 = call noundef float @_ZNK5faiss12_GLOBAL__N_110DCTemplateINS0_17QuantizerTemplateINS0_9Codec8bitELb1ELi1EEENS0_12SimilarityIPILi1EEELi1EE16compute_distanceEPKfPKh(ptr noundef nonnull align 8 dereferenceable(56) %5, ptr noundef %7, ptr noundef %8)
  ret float %9
}

; Function Attrs: mustprogress uwtable
define internal void @_ZNK5faiss12_GLOBAL__N_114IVFSQScannerIPINS0_10DCTemplateINS0_17QuantizerTemplateINS0_9Codec8bitELb1ELi1EEENS0_12SimilarityIPILi1EEELi1EEELi2EE16scan_codes_rangeEmPKhPKlfRNS_16RangeQueryResultE(ptr noundef nonnull align 8 dereferenceable(104) %0, i64 noundef %1, ptr noundef %2, ptr noundef %3, float noundef %4, ptr noundef nonnull align 8 dereferenceable(24) %5) unnamed_addr #0 align 2 {
  %7 = alloca ptr, align 8
  %8 = alloca i64, align 8
  %9 = alloca ptr, align 8
  %10 = alloca ptr, align 8
  %11 = alloca float, align 4
  %12 = alloca ptr, align 8
  %13 = alloca i64, align 8
  %14 = alloca float, align 4
  %15 = alloca i64, align 8
  store ptr %0, ptr %7, align 8
  store i64 %1, ptr %8, align 8
  store ptr %2, ptr %9, align 8
  store ptr %3, ptr %10, align 8
  store float %4, ptr %11, align 4
  store ptr %5, ptr %12, align 8
  %16 = load ptr, ptr %7, align 8
  store i64 0, ptr %13, align 8
  br label %17

17:                                               ; preds = %61, %6
  %18 = load i64, ptr %13, align 8
  %19 = load i64, ptr %8, align 8
  %20 = icmp ult i64 %18, %19
  br i1 %20, label %21, label %68

21:                                               ; preds = %17
  %22 = getelementptr inbounds %"struct.faiss::InvertedListScanner", ptr %16, i32 0, i32 4
  %23 = load ptr, ptr %22, align 8
  %24 = load i64, ptr %13, align 8
  %25 = load ptr, ptr %23, align 8
  %26 = getelementptr inbounds ptr, ptr %25, i64 0
  %27 = load ptr, ptr %26, align 8
  %28 = call noundef zeroext i1 %27(ptr noundef nonnull align 8 dereferenceable(8) %23, i64 noundef %24)
  br i1 %28, label %30, label %29

29:                                               ; preds = %21
  br label %61

30:                                               ; preds = %21
  %31 = getelementptr inbounds %"struct.faiss::(anonymous namespace)::IVFSQScannerIP", ptr %16, i32 0, i32 3
  %32 = load float, ptr %31, align 4
  %33 = getelementptr inbounds %"struct.faiss::(anonymous namespace)::IVFSQScannerIP", ptr %16, i32 0, i32 1
  %34 = load ptr, ptr %9, align 8
  %35 = call noundef float @_ZNK5faiss12_GLOBAL__N_110DCTemplateINS0_17QuantizerTemplateINS0_9Codec8bitELb1ELi1EEENS0_12SimilarityIPILi1EEELi1EE13query_to_codeEPKh(ptr noundef nonnull align 8 dereferenceable(56) %33, ptr noundef %34)
  %36 = fadd float %32, %35
  store float %36, ptr %14, align 4
  %37 = load float, ptr %14, align 4
  %38 = load float, ptr %11, align 4
  %39 = fcmp ogt float %37, %38
  br i1 %39, label %40, label %60

40:                                               ; preds = %30
  %41 = getelementptr inbounds %"struct.faiss::InvertedListScanner", ptr %16, i32 0, i32 3
  %42 = load i8, ptr %41, align 1
  %43 = trunc i8 %42 to i1
  br i1 %43, label %44, label %50

44:                                               ; preds = %40
  %45 = getelementptr inbounds %"struct.faiss::InvertedListScanner", ptr %16, i32 0, i32 1
  %46 = load i64, ptr %45, align 8
  %47 = shl i64 %46, 32
  %48 = load i64, ptr %13, align 8
  %49 = or i64 %47, %48
  br label %55

50:                                               ; preds = %40
  %51 = load ptr, ptr %10, align 8
  %52 = load i64, ptr %13, align 8
  %53 = getelementptr inbounds i64, ptr %51, i64 %52
  %54 = load i64, ptr %53, align 8
  br label %55

55:                                               ; preds = %50, %44
  %56 = phi i64 [ %49, %44 ], [ %54, %50 ]
  store i64 %56, ptr %15, align 8
  %57 = load ptr, ptr %12, align 8
  %58 = load float, ptr %14, align 4
  %59 = load i64, ptr %15, align 8
  call void @_ZN5faiss16RangeQueryResult3addEfl(ptr noundef nonnull align 8 dereferenceable(24) %57, float noundef %58, i64 noundef %59)
  br label %60

60:                                               ; preds = %55, %30
  br label %61

61:                                               ; preds = %60, %29
  %62 = load i64, ptr %13, align 8
  %63 = add i64 %62, 1
  store i64 %63, ptr %13, align 8
  %64 = getelementptr inbounds %"struct.faiss::InvertedListScanner", ptr %16, i32 0, i32 5
  %65 = load i64, ptr %64, align 8
  %66 = load ptr, ptr %9, align 8
  %67 = getelementptr inbounds i8, ptr %66, i64 %65
  store ptr %67, ptr %9, align 8
  br label %17, !llvm.loop !127

68:                                               ; preds = %17
  ret void
}