; Function Attrs: mustprogress uwtable
define internal void @_ZNK5faiss12_GLOBAL__N_114IVFSQScannerIPINS0_10DCTemplateINS0_17QuantizerTemplateINS0_9Codec8bitELb1ELi1EEENS0_12SimilarityIPILi1EEELi1EEELi2EE16scan_codes_rangeEmPKhPKlfRNS_16RangeQueryResultE(ptr nocapture noundef nonnull readonly align 8 dereferenceable(104) %0, i64 noundef %1, ptr nocapture noundef readonly %2, ptr nocapture noundef readonly %3, float noundef %4, ptr noundef nonnull align 8 dereferenceable(24) %5) unnamed_addr #0 align 2 {
  %.not20 = icmp eq i64 %1, 0
  br i1 %.not20, label %._crit_edge, label %.lr.ph

.lr.ph:                                           ; preds = %6
  %7 = getelementptr inbounds i8, ptr %0, i64 24
  %8 = getelementptr inbounds i8, ptr %0, i64 100
  %9 = getelementptr inbounds i8, ptr %0, i64 80
  %10 = getelementptr inbounds i8, ptr %0, i64 64
  %11 = getelementptr inbounds i8, ptr %0, i64 88
  %12 = getelementptr inbounds i8, ptr %0, i64 92
  %13 = getelementptr inbounds i8, ptr %0, i64 17
  %14 = getelementptr inbounds i8, ptr %0, i64 8
  %15 = getelementptr inbounds i8, ptr %0, i64 32
  br label %16

16:                                               ; preds = %.lr.ph, %53
  %.018 = phi ptr [ %2, %.lr.ph ], [ %56, %53 ]
  %.01416 = phi i64 [ 0, %.lr.ph ], [ %54, %53 ]
  %17 = load ptr, ptr %7, align 8
  %18 = load ptr, ptr %17, align 8
  %19 = load ptr, ptr %18, align 8
  %20 = tail call noundef zeroext i1 %19(ptr noundef nonnull align 8 dereferenceable(8) %17, i64 noundef %.01416)
  br i1 %20, label %21, label %53

21:                                               ; preds = %16
  %22 = load float, ptr %8, align 4
  %23 = load i64, ptr %9, align 8
  %.not.i.i = icmp eq i64 %23, 0
  br i1 %.not.i.i, label %_ZNK5faiss12_GLOBAL__N_110DCTemplateINS0_17QuantizerTemplateINS0_9Codec8bitELb1ELi1EEENS0_12SimilarityIPILi1EEELi1EE13query_to_codeEPKh.exit, label %.lr.ph.i.i

.lr.ph.i.i:                                       ; preds = %21
  %24 = load ptr, ptr %10, align 8
  %25 = load float, ptr %11, align 8
  %26 = load float, ptr %12, align 4
  br label %27

27:                                               ; preds = %27, %.lr.ph.i.i
  %.019.i.i = phi i64 [ 0, %.lr.ph.i.i ], [ %38, %27 ]
  %.sroa.5.018.i.i = phi float [ 0.000000e+00, %.lr.ph.i.i ], [ %37, %27 ]
  %.sroa.2.017.i.i = phi ptr [ %24, %.lr.ph.i.i ], [ %35, %27 ]
  %sext.i.i = shl i64 %.019.i.i, 32
  %28 = ashr exact i64 %sext.i.i, 32
  %29 = getelementptr inbounds i8, ptr %.018, i64 %28
  %30 = load i8, ptr %29, align 1
  %31 = uitofp i8 %30 to float
  %32 = fadd float %31, 5.000000e-01
  %33 = fdiv float %32, 2.550000e+02
  %34 = tail call noundef float @llvm.fmuladd.f32(float %33, float %26, float %25)
  %35 = getelementptr inbounds i8, ptr %.sroa.2.017.i.i, i64 4
  %36 = load float, ptr %.sroa.2.017.i.i, align 4
  %37 = tail call float @llvm.fmuladd.f32(float %36, float %34, float %.sroa.5.018.i.i)
  %38 = add nuw i64 %.019.i.i, 1
  %exitcond.not.i.i = icmp eq i64 %38, %23
  br i1 %exitcond.not.i.i, label %_ZNK5faiss12_GLOBAL__N_110DCTemplateINS0_17QuantizerTemplateINS0_9Codec8bitELb1ELi1EEENS0_12SimilarityIPILi1EEELi1EE13query_to_codeEPKh.exit, label %27, !llvm.loop !61

_ZNK5faiss12_GLOBAL__N_110DCTemplateINS0_17QuantizerTemplateINS0_9Codec8bitELb1ELi1EEENS0_12SimilarityIPILi1EEELi1EE13query_to_codeEPKh.exit: ; preds = %27, %21
  %.sroa.5.0.lcssa.i.i = phi float [ 0.000000e+00, %21 ], [ %37, %27 ]
  %39 = fadd float %22, %.sroa.5.0.lcssa.i.i
  %40 = fcmp ogt float %39, %4
  br i1 %40, label %41, label %53

41:                                               ; preds = %_ZNK5faiss12_GLOBAL__N_110DCTemplateINS0_17QuantizerTemplateINS0_9Codec8bitELb1ELi1EEENS0_12SimilarityIPILi1EEELi1EE13query_to_codeEPKh.exit
  %42 = load i8, ptr %13, align 1
  %43 = and i8 %42, 1
  %.not = icmp eq i8 %43, 0
  br i1 %.not, label %48, label %44

44:                                               ; preds = %41
  %45 = load i64, ptr %14, align 8
  %46 = shl i64 %45, 32
  %47 = or i64 %46, %.01416
  br label %51

48:                                               ; preds = %41
  %49 = getelementptr inbounds i64, ptr %3, i64 %.01416
  %50 = load i64, ptr %49, align 8
  br label %51

51:                                               ; preds = %48, %44
  %52 = phi i64 [ %47, %44 ], [ %50, %48 ]
  tail call void @_ZN5faiss16RangeQueryResult3addEfl(ptr noundef nonnull align 8 dereferenceable(24) %5, float noundef %39, i64 noundef %52)
  br label %53

53:                                               ; preds = %_ZNK5faiss12_GLOBAL__N_110DCTemplateINS0_17QuantizerTemplateINS0_9Codec8bitELb1ELi1EEENS0_12SimilarityIPILi1EEELi1EE13query_to_codeEPKh.exit, %51, %16
  %54 = add nuw i64 %.01416, 1
  %55 = load i64, ptr %15, align 8
  %56 = getelementptr inbounds i8, ptr %.018, i64 %55
  %exitcond.not = icmp eq i64 %54, %1
  br i1 %exitcond.not, label %._crit_edge, label %16, !llvm.loop !127

._crit_edge:                                      ; preds = %53, %6
  ret void
}